; Function Attrs: nounwind uwtable
define nonnull ptr @l_Std_Tactic_BVDecide_LRAT_Internal_Assignment_hasAssignment___boxed(ptr noundef %0, ptr noundef %1) local_unnamed_addr #1 {
  %3 = ptrtoint ptr %0 to i64
  %4 = and i64 %3, 1
  %.not = icmp eq i64 %4, 0
  br i1 %.not, label %5, label %lean_dec.exit7

5:                                                ; preds = %2
  %6 = load i32, ptr %0, align 4, !tbaa !4
  %7 = icmp sgt i32 %6, 1
  br i1 %7, label %8, label %10, !prof !9

8:                                                ; preds = %5
  %9 = add nsw i32 %6, -1
  store i32 %9, ptr %0, align 4, !tbaa !4
  br label %lean_dec.exit7

10:                                               ; preds = %5
  %.not.i = icmp eq i32 %6, 0
  br i1 %.not.i, label %lean_dec.exit7, label %11

11:                                               ; preds = %10
  tail call void @lean_dec_ref_cold(ptr noundef nonnull %0) #6
  br label %lean_dec.exit7

lean_dec.exit7:                                   ; preds = %11, %10, %8, %2
  %12 = ptrtoint ptr %1 to i64
  %13 = lshr i64 %12, 1
  %14 = trunc i64 %13 to i8
  %15 = and i64 %12, 1
  %.not10 = icmp eq i64 %15, 0
  br i1 %.not10, label %16, label %lean_dec.exit

16:                                               ; preds = %lean_dec.exit7
  %17 = load i32, ptr %1, align 4, !tbaa !4
  %18 = icmp sgt i32 %17, 1
  br i1 %18, label %19, label %21, !prof !9

19:                                               ; preds = %16
  %20 = add nsw i32 %17, -1
  store i32 %20, ptr %1, align 4, !tbaa !4
  br label %lean_dec.exit

21:                                               ; preds = %16
  %.not.i8 = icmp eq i32 %17, 0
  br i1 %.not.i8, label %lean_dec.exit, label %22

22:                                               ; preds = %21
  tail call void @lean_dec_ref_cold(ptr noundef nonnull %1) #6
  br label %lean_dec.exit

lean_dec.exit:                                    ; preds = %22, %21, %19, %lean_dec.exit7
  %23 = and i64 %3, 510
  %24 = icmp eq i64 %23, 0
  br i1 %24, label %25, label %27

25:                                               ; preds = %lean_dec.exit
  %26 = add i8 %14, -1
  %switch.i = icmp ult i8 %26, 2
  br label %l_Std_Tactic_BVDecide_LRAT_Internal_Assignment_hasAssignment.exit

27:                                               ; preds = %lean_dec.exit
  %28 = trunc i64 %13 to i32
  %29 = and i32 %28, 255
  %30 = add nsw i32 %29, -1
  %switch.and.i = and i32 %30, -3
  %switch.selectcmp.i = icmp ne i32 %switch.and.i, 0
  br label %l_Std_Tactic_BVDecide_LRAT_Internal_Assignment_hasAssignment.exit

l_Std_Tactic_BVDecide_LRAT_Internal_Assignment_hasAssignment.exit: ; preds = %25, %27
  %.1.in.i = phi i1 [ %switch.i, %25 ], [ %switch.selectcmp.i, %27 ]
  %31 = select i1 %.1.in.i, ptr inttoptr (i64 3 to ptr), ptr inttoptr (i64 1 to ptr)
  ret ptr %31
}